#include <math.h>
#include <stdio.h>
#include <stdlib.h>
#include <string.h>

int main()
{
	int n,m,a[100],i;
	int temp;
	scanf("%d%d",&n,&m);
	for(i=0;i<n;i++)
	{
		scanf("%d",&a[i]);
	}
	for(i=n;i<100;i++)
	{
		a[i]=0;
	}

	for(i=0;i<n-m;i++)
	{
		temp=a[i];
		a[i]=a[i+n];
		a[i+n]=temp;
	}
	for(i=n-m;i<2*n-m-1;i++)
	{
		printf("%d ",a[i]);
	}
          printf("%d",a[2*n-m-1]);

return 0;
}
